target datalayout = "e-m:e-p270:32:32-p271:32:32-p272:64:64-i64:64-i128:128-f80:128-n8:16:32:64-S128"
target triple = "x86_64-pc-linux-gnu"

%struct.sat_solver2_t = type { i32, i32, i32, i32, i32, double, double, i32, i32, i32, i32, ptr, ptr, i32, i32, i32, i32, i32, i32, i32, i32, i32, i32, i32, %struct.Sat_Mem_t_, ptr, %struct.veci_t, %struct.veci_t, i32, i32, i32, ptr, ptr, ptr, ptr, ptr, ptr, ptr, ptr, %struct.veci_t, %struct.veci_t, %struct.veci_t, %struct.veci_t, %struct.veci_t, %struct.veci_t, %struct.veci_t, %struct.veci_t, %struct.veci_t, %struct.veci_t, ptr, %struct.veci_t, i32, i32, ptr, double, ptr, i32, %struct.stats_t, i64, i64, i64 }
%struct.Sat_Mem_t_ = type { [2 x i32], [2 x i32], [2 x i32], [2 x i32], i32, i32, i32, i32, ptr }
%struct.veci_t = type { i32, i32, ptr }
%struct.stats_t = type { i32, i32, i32, i64, i64, i64, i64, i64, i64, i64 }
%struct.Vec_Set_t_ = type { i32, i32, i32, i32, i32, i32, ptr }

; Function Attrs: nounwind uwtable
define internal double @Vec_ReportMemory(ptr noundef %0) #0 {
  %2 = alloca ptr, align 8
  %3 = alloca double, align 8
  store ptr %0, ptr %2, align 8
  store double 3.200000e+01, ptr %3, align 8
  %4 = load ptr, ptr %2, align 8
  %5 = getelementptr inbounds %struct.Vec_Set_t_, ptr %4, i32 0, i32 5
  %6 = load i32, ptr %5, align 4
  %7 = sext i32 %6 to i64
  %8 = mul i64 %7, 8
  %9 = uitofp i64 %8 to double
  %10 = load double, ptr %3, align 8
  %11 = fadd double %10, %9
  store double %11, ptr %3, align 8
  %12 = load ptr, ptr %2, align 8
  %13 = getelementptr inbounds %struct.Vec_Set_t_, ptr %12, i32 0, i32 0
  %14 = load i32, ptr %13, align 8
  %15 = zext i32 %14 to i64
  %16 = shl i64 1, %15
  %17 = mul i64 8, %16
  %18 = load ptr, ptr %2, align 8
  %19 = getelementptr inbounds %struct.Vec_Set_t_, ptr %18, i32 0, i32 3
  %20 = load i32, ptr %19, align 4
  %21 = add nsw i32 1, %20
  %22 = sext i32 %21 to i64
  %23 = mul i64 %17, %22
  %24 = uitofp i64 %23 to double
  %25 = load double, ptr %3, align 8
  %26 = fadd double %25, %24
  store double %26, ptr %3, align 8
  %27 = load double, ptr %3, align 8
  ret double %27
}

; Function Attrs: nounwind uwtable
define double @sat_solver2_memory_proof(ptr noundef %0) #0 {
  %2 = alloca ptr, align 8
  %3 = alloca double, align 8
  store ptr %0, ptr %2, align 8
  %4 = load ptr, ptr %2, align 8
  %5 = getelementptr inbounds %struct.sat_solver2_t, ptr %4, i32 0, i32 54
  %6 = load double, ptr %5, align 8
  store double %6, ptr %3, align 8
  %7 = load ptr, ptr %2, align 8
  %8 = getelementptr inbounds %struct.sat_solver2_t, ptr %7, i32 0, i32 49
  %9 = load ptr, ptr %8, align 8
  %10 = icmp ne ptr %9, null
  br i1 %10, label %11, label %18

11:                                               ; preds = %1
  %12 = load ptr, ptr %2, align 8
  %13 = getelementptr inbounds %struct.sat_solver2_t, ptr %12, i32 0, i32 49
  %14 = load ptr, ptr %13, align 8
  %15 = call double @Vec_ReportMemory(ptr noundef %14)
  %16 = load double, ptr %3, align 8
  %17 = fadd double %16, %15
  store double %17, ptr %3, align 8
  br label %18

18:                                               ; preds = %11, %1
  %19 = load double, ptr %3, align 8
  ret double %19
}