; Function Attrs: mustprogress nofree norecurse nosync nounwind willreturn memory(read, inaccessiblemem: none) uwtable
define double @sat_solver2_memory_proof(ptr noundef readonly captures(none) %0) local_unnamed_addr #0 {
  %2 = getelementptr inbounds nuw i8, ptr %0, i64 496
  %3 = load double, ptr %2, align 8
  %4 = getelementptr inbounds nuw i8, ptr %0, i64 456
  %5 = load ptr, ptr %4, align 8
  %.not = icmp eq ptr %5, null
  br i1 %.not, label %24, label %6

6:                                                ; preds = %1
  %7 = getelementptr inbounds nuw i8, ptr %5, i64 20
  %8 = load i32, ptr %7, align 4
  %9 = sext i32 %8 to i64
  %10 = shl nsw i64 %9, 3
  %11 = uitofp i64 %10 to double
  %12 = fadd double %11, 3.200000e+01
  %13 = load i32, ptr %5, align 8
  %14 = zext nneg i32 %13 to i64
  %15 = shl i64 8, %14
  %16 = getelementptr inbounds nuw i8, ptr %5, i64 12
  %17 = load i32, ptr %16, align 4
  %18 = add nsw i32 %17, 1
  %19 = sext i32 %18 to i64
  %20 = mul i64 %15, %19
  %21 = uitofp i64 %20 to double
  %22 = fadd double %12, %21
  %23 = fadd double %3, %22
  br label %24

24:                                               ; preds = %6, %1
  %.0 = phi double [ %23, %6 ], [ %3, %1 ]
  ret double %.0
}